target datalayout = "e-m:e-p270:32:32-p271:32:32-p272:64:64-i64:64-i128:128-f80:128-n8:16:32:64-S128"
target triple = "x86_64-pc-linux-gnu"

%struct.expert_field = type { i32, i32 }

@ei_gelf_broken_compression = internal global %struct.expert_field zeroinitializer, align 4
@json_handle = internal global ptr null, align 8
@.str.57 = private unnamed_addr constant [16 x i8] c"compressed data\00", align 1
@.str.58 = private unnamed_addr constant [25 x i8] c"Can't uncompress message\00", align 1

; Function Attrs: inlinehint nounwind null_pointer_is_valid sspstrong uwtable
define internal zeroext i1 @is_simple_zlib(i16 noundef zeroext %0) #3 {
  %2 = alloca i16, align 2
  store i16 %0, ptr %2, align 2
  %3 = load i16, ptr %2, align 2
  %4 = zext i16 %3 to i32
  %5 = icmp eq i32 %4, 30721
  br i1 %5, label %18, label %6

6:                                                ; preds = %1
  %7 = load i16, ptr %2, align 2
  %8 = zext i16 %7 to i32
  %9 = icmp eq i32 %8, 30814
  br i1 %9, label %18, label %10

10:                                               ; preds = %6
  %11 = load i16, ptr %2, align 2
  %12 = zext i16 %11 to i32
  %13 = icmp eq i32 %12, 30876
  br i1 %13, label %18, label %14

14:                                               ; preds = %10
  %15 = load i16, ptr %2, align 2
  %16 = zext i16 %15 to i32
  %17 = icmp eq i32 %16, 30938
  br label %18

18:                                               ; preds = %14, %10, %6, %1
  %19 = phi i1 [ true, %10 ], [ true, %6 ], [ true, %1 ], [ %17, %14 ]
  ret i1 %19
}

; Function Attrs: null_pointer_is_valid sspstrong uwtable
define internal i32 @dissect_gelf_simple_udp(ptr noundef %0, ptr noundef %1, ptr noundef %2, i16 noundef zeroext %3, ptr noundef %4) #0 {
  %6 = alloca i32, align 4
  %7 = alloca ptr, align 8
  %8 = alloca ptr, align 8
  %9 = alloca ptr, align 8
  %10 = alloca i16, align 2
  %11 = alloca ptr, align 8
  %12 = alloca i32, align 4
  %13 = alloca ptr, align 8
  %14 = alloca i32, align 4
  store ptr %0, ptr %7, align 8
  store ptr %1, ptr %8, align 8
  store ptr %2, ptr %9, align 8
  store i16 %3, ptr %10, align 2
  store ptr %4, ptr %11, align 8
  call void @llvm.lifetime.start.p0(i64 4, ptr %12) #4
  call void @llvm.lifetime.start.p0(i64 8, ptr %13) #4
  %15 = load ptr, ptr %7, align 8
  %16 = call i32 @tvb_captured_length(ptr noundef %15)
  store i32 %16, ptr %12, align 4
  %17 = load i16, ptr %10, align 2
  %18 = zext i16 %17 to i32
  %19 = icmp eq i32 %18, 8075
  br i1 %19, label %23, label %20

20:                                               ; preds = %5
  %21 = load i16, ptr %10, align 2
  %22 = call zeroext i1 @is_simple_zlib(i16 noundef zeroext %21)
  br i1 %22, label %23, label %44

23:                                               ; preds = %20, %5
  %24 = load ptr, ptr %7, align 8
  %25 = load ptr, ptr %7, align 8
  %26 = load i32, ptr %12, align 4
  %27 = call ptr @tvb_child_uncompress_zlib(ptr noundef %24, ptr noundef %25, i32 noundef 0, i32 noundef %26)
  store ptr %27, ptr %13, align 8
  %28 = load ptr, ptr %13, align 8
  %29 = icmp ne ptr %28, null
  br i1 %29, label %30, label %38

30:                                               ; preds = %23
  %31 = load ptr, ptr %8, align 8
  %32 = load ptr, ptr %13, align 8
  call void @add_new_data_source(ptr noundef %31, ptr noundef %32, ptr noundef @.str.57)
  %33 = load ptr, ptr @json_handle, align 8
  %34 = load ptr, ptr %13, align 8
  %35 = load ptr, ptr %8, align 8
  %36 = load ptr, ptr %9, align 8
  %37 = call i32 @call_dissector(ptr noundef %33, ptr noundef %34, ptr noundef %35, ptr noundef %36)
  br label %42

38:                                               ; preds = %23
  %39 = load ptr, ptr %8, align 8
  %40 = load ptr, ptr %11, align 8
  %41 = call ptr (ptr, ptr, ptr, ptr, ...) @expert_add_info_format(ptr noundef %39, ptr noundef %40, ptr noundef @ei_gelf_broken_compression, ptr noundef @.str.58)
  br label %42

42:                                               ; preds = %38, %30
  %43 = load i32, ptr %12, align 4
  store i32 %43, ptr %6, align 4
  store i32 1, ptr %14, align 4
  br label %78

44:                                               ; preds = %20
  %45 = load i16, ptr %10, align 2
  %46 = zext i16 %45 to i32
  %47 = icmp eq i32 %46, 7996
  br i1 %47, label %48, label %61

48:                                               ; preds = %44
  %49 = load ptr, ptr %7, align 8
  %50 = call ptr @tvb_new_subset_remaining(ptr noundef %49, i32 noundef 2)
  store ptr %50, ptr %13, align 8
  %51 = load ptr, ptr %13, align 8
  %52 = icmp ne ptr %51, null
  br i1 %52, label %53, label %59

53:                                               ; preds = %48
  %54 = load ptr, ptr @json_handle, align 8
  %55 = load ptr, ptr %13, align 8
  %56 = load ptr, ptr %8, align 8
  %57 = load ptr, ptr %9, align 8
  %58 = call i32 @call_dissector(ptr noundef %54, ptr noundef %55, ptr noundef %56, ptr noundef %57)
  br label %59

59:                                               ; preds = %53, %48
  %60 = load i32, ptr %12, align 4
  store i32 %60, ptr %6, align 4
  store i32 1, ptr %14, align 4
  br label %78

61:                                               ; preds = %44
  %62 = load i16, ptr %10, align 2
  %63 = zext i16 %62 to i32
  %64 = icmp eq i32 %63, 31522
  br i1 %64, label %65, label %75

65:                                               ; preds = %61
  %66 = load ptr, ptr @json_handle, align 8
  %67 = load ptr, ptr %7, align 8
  %68 = load ptr, ptr %8, align 8
  %69 = load ptr, ptr %9, align 8
  %70 = call i32 @call_dissector(ptr noundef %66, ptr noundef %67, ptr noundef %68, ptr noundef %69)
  %71 = icmp eq i32 %70, 0
  br i1 %71, label %72, label %73

72:                                               ; preds = %65
  store i32 0, ptr %6, align 4
  store i32 1, ptr %14, align 4
  br label %78

73:                                               ; preds = %65
  %74 = load i32, ptr %12, align 4
  store i32 %74, ptr %6, align 4
  store i32 1, ptr %14, align 4
  br label %78

75:                                               ; preds = %61
  br label %76

76:                                               ; preds = %75
  br label %77

77:                                               ; preds = %76
  store i32 0, ptr %6, align 4
  store i32 1, ptr %14, align 4
  br label %78

78:                                               ; preds = %77, %73, %72, %59, %42
  call void @llvm.lifetime.end.p0(i64 8, ptr %13) #4
  call void @llvm.lifetime.end.p0(i64 4, ptr %12) #4
  %79 = load i32, ptr %6, align 4
  ret i32 %79
}