; Function Attrs: null_pointer_is_valid sspstrong uwtable
define internal fastcc i32 @dissect_gelf_simple_udp(ptr noundef %0, ptr noundef %1, ptr noundef %2, i16 noundef zeroext %3, ptr noundef %4) unnamed_addr #0 {
  %6 = tail call i32 @tvb_captured_length(ptr noundef %0)
  switch i16 %3, label %22 [
    i16 8075, label %is_simple_zlib.exit.thread
    i16 30876, label %is_simple_zlib.exit.thread
    i16 30814, label %is_simple_zlib.exit.thread
    i16 30721, label %is_simple_zlib.exit.thread
    i16 30938, label %is_simple_zlib.exit.thread
    i16 7996, label %13
    i16 31522, label %18
  ]

is_simple_zlib.exit.thread:                       ; preds = %5, %5, %5, %5, %5
  %7 = tail call ptr @tvb_child_uncompress_zlib(ptr noundef %0, ptr noundef %0, i32 noundef 0, i32 noundef %6)
  %.not30 = icmp eq ptr %7, null
  br i1 %.not30, label %11, label %8

8:                                                ; preds = %is_simple_zlib.exit.thread
  tail call void @add_new_data_source(ptr noundef %1, ptr noundef nonnull %7, ptr noundef nonnull @.str.57)
  %9 = load ptr, ptr @json_handle, align 8
  %10 = tail call i32 @call_dissector(ptr noundef %9, ptr noundef nonnull %7, ptr noundef %1, ptr noundef %2)
  br label %22

11:                                               ; preds = %is_simple_zlib.exit.thread
  %12 = tail call ptr (ptr, ptr, ptr, ptr, ...) @expert_add_info_format(ptr noundef %1, ptr noundef %4, ptr noundef nonnull @ei_gelf_broken_compression, ptr noundef nonnull @.str.58)
  br label %22

13:                                               ; preds = %5
  %14 = tail call ptr @tvb_new_subset_remaining(ptr noundef %0, i32 noundef 2)
  %.not = icmp eq ptr %14, null
  br i1 %.not, label %22, label %15

15:                                               ; preds = %13
  %16 = load ptr, ptr @json_handle, align 8
  %17 = tail call i32 @call_dissector(ptr noundef %16, ptr noundef nonnull %14, ptr noundef %1, ptr noundef %2)
  br label %22

18:                                               ; preds = %5
  %19 = load ptr, ptr @json_handle, align 8
  %20 = tail call i32 @call_dissector(ptr noundef %19, ptr noundef %0, ptr noundef %1, ptr noundef %2)
  %21 = icmp eq i32 %20, 0
  %. = select i1 %21, i32 0, i32 %6
  br label %22

22:                                               ; preds = %5, %18, %13, %15, %8, %11
  %.0 = phi i32 [ %6, %11 ], [ %6, %8 ], [ %6, %15 ], [ %6, %13 ], [ %., %18 ], [ 0, %5 ]
  ret i32 %.0
}